ccopy_reg
_reconstructor
p0
(capiclient.oauth
OAuthCredentials
p1
c__builtin__
object
p2
Ntp3
Rp4
(dp5
S'_invalid'
p6
I00
sS'token'
p7
g0
(coauth2
Token
p8
g2
Ntp9
Rp10
(dp11
S'secret'
p12
S'SzlkqKT3MkCmP_S1TeQmi5sZ'
p13
sS'key'
p14
S'1/ov2-7kRU41p96OEQ7Yd_oQgD0EGb69du8QilJtXwev8'
p15
sbsS'consumer'
p16
g0
(coauth2
Consumer
p17
g2
Ntp18
Rp19
(dp20
g12
S'3DSvBitUBNoVHtd9GlcvYOBi'
p21
sg14
S'elsmorian.com'
p22
sbsS'user_agent'
p23
S'google-api-client-python-latitude/1.0'
p24
sb.